target datalayout = "e-m:e-p270:32:32-p271:32:32-p272:64:64-i64:64-i128:128-f80:128-n8:16:32:64-S128"
target triple = "x86_64-pc-linux-gnu"

%struct.CMS_SignerInfo_st = type { i32, ptr, ptr, ptr, ptr, ptr, ptr, ptr, ptr, ptr, ptr, ptr, i32 }
%struct.asn1_string_st = type { i32, i32, ptr, i64 }

@.str = private unnamed_addr constant [34 x i8] c"../openssl/crypto/cms/cms_smime.c\00", align 1
@__func__.CMS_sign_receipt = private unnamed_addr constant [17 x i8] c"CMS_sign_receipt\00", align 1

; Function Attrs: nounwind uwtable
define ptr @CMS_sign_receipt(ptr noundef %0, ptr noundef %1, ptr noundef %2, ptr noundef %3, i32 noundef %4) #0 {
  %6 = alloca ptr, align 8
  %7 = alloca ptr, align 8
  %8 = alloca ptr, align 8
  %9 = alloca ptr, align 8
  %10 = alloca ptr, align 8
  %11 = alloca i32, align 4
  %12 = alloca ptr, align 8
  %13 = alloca ptr, align 8
  %14 = alloca ptr, align 8
  %15 = alloca ptr, align 8
  %16 = alloca ptr, align 8
  %17 = alloca i32, align 4
  %18 = alloca ptr, align 8
  %19 = alloca i32, align 4
  store ptr %0, ptr %7, align 8, !tbaa !42
  store ptr %1, ptr %8, align 8, !tbaa !44
  store ptr %2, ptr %9, align 8, !tbaa !54
  store ptr %3, ptr %10, align 8, !tbaa !28
  store i32 %4, ptr %11, align 4, !tbaa !10
  call void @llvm.lifetime.start.p0(i64 8, ptr %12) #4
  call void @llvm.lifetime.start.p0(i64 8, ptr %13) #4
  store ptr null, ptr %13, align 8, !tbaa !3
  call void @llvm.lifetime.start.p0(i64 8, ptr %14) #4
  call void @llvm.lifetime.start.p0(i64 8, ptr %15) #4
  store ptr null, ptr %15, align 8, !tbaa !18
  call void @llvm.lifetime.start.p0(i64 8, ptr %16) #4
  store ptr null, ptr %16, align 8, !tbaa !8
  call void @llvm.lifetime.start.p0(i64 4, ptr %17) #4
  store i32 0, ptr %17, align 4, !tbaa !10
  call void @llvm.lifetime.start.p0(i64 8, ptr %18) #4
  %20 = load ptr, ptr %7, align 8, !tbaa !42
  %21 = getelementptr inbounds nuw %struct.CMS_SignerInfo_st, ptr %20, i32 0, i32 11
  %22 = load ptr, ptr %21, align 8, !tbaa !57
  store ptr %22, ptr %18, align 8, !tbaa !36
  %23 = load i32, ptr %11, align 4, !tbaa !10
  %24 = and i32 %23, -4098
  store i32 %24, ptr %11, align 4, !tbaa !10
  %25 = load i32, ptr %11, align 4, !tbaa !10
  %26 = or i32 %25, 16576
  store i32 %26, ptr %11, align 4, !tbaa !10
  %27 = load ptr, ptr %9, align 8, !tbaa !54
  %28 = icmp eq ptr %27, null
  br i1 %28, label %32, label %29

29:                                               ; preds = %5
  %30 = load ptr, ptr %8, align 8, !tbaa !44
  %31 = icmp eq ptr %30, null
  br i1 %31, label %32, label %33

32:                                               ; preds = %29, %5
  call void @ERR_new()
  call void @ERR_set_debug(ptr noundef @.str, i32 noundef 582, ptr noundef @__func__.CMS_sign_receipt)
  call void (i32, i32, ptr, ...) @ERR_set_error(i32 noundef 46, i32 noundef 174, ptr noundef null)
  store ptr null, ptr %6, align 8
  store i32 1, ptr %19, align 4
  br label %108

33:                                               ; preds = %29
  %34 = load ptr, ptr %10, align 8, !tbaa !28
  %35 = load i32, ptr %11, align 4, !tbaa !10
  %36 = load ptr, ptr %18, align 8, !tbaa !36
  %37 = call ptr @ossl_cms_ctx_get0_libctx(ptr noundef %36)
  %38 = load ptr, ptr %18, align 8, !tbaa !36
  %39 = call ptr @ossl_cms_ctx_get0_propq(ptr noundef %38)
  %40 = call ptr @CMS_sign_ex(ptr noundef null, ptr noundef null, ptr noundef %34, ptr noundef null, i32 noundef %35, ptr noundef %37, ptr noundef %39)
  store ptr %40, ptr %13, align 8, !tbaa !3
  %41 = load ptr, ptr %13, align 8, !tbaa !3
  %42 = icmp eq ptr %41, null
  br i1 %42, label %43, label %44

43:                                               ; preds = %33
  br label %98

44:                                               ; preds = %33
  %45 = load ptr, ptr %13, align 8, !tbaa !3
  %46 = call ptr @OBJ_nid2obj(i32 noundef 204)
  %47 = call i32 @CMS_set1_eContentType(ptr noundef %45, ptr noundef %46)
  %48 = icmp ne i32 %47, 0
  br i1 %48, label %50, label %49

49:                                               ; preds = %44
  br label %98

50:                                               ; preds = %44
  %51 = load ptr, ptr %13, align 8, !tbaa !3
  %52 = load ptr, ptr %8, align 8, !tbaa !44
  %53 = load ptr, ptr %9, align 8, !tbaa !54
  %54 = load i32, ptr %11, align 4, !tbaa !10
  %55 = call ptr @CMS_add1_signer(ptr noundef %51, ptr noundef %52, ptr noundef %53, ptr noundef null, i32 noundef %54)
  store ptr %55, ptr %12, align 8, !tbaa !42
  %56 = load ptr, ptr %12, align 8, !tbaa !42
  %57 = icmp ne ptr %56, null
  br i1 %57, label %59, label %58

58:                                               ; preds = %50
  call void @ERR_new()
  call void @ERR_set_debug(ptr noundef @.str, i32 noundef 600, ptr noundef @__func__.CMS_sign_receipt)
  call void (i32, i32, ptr, ...) @ERR_set_error(i32 noundef 46, i32 noundef 99, ptr noundef null)
  br label %98

59:                                               ; preds = %50
  %60 = load ptr, ptr %7, align 8, !tbaa !42
  %61 = call ptr @ossl_cms_encode_Receipt(ptr noundef %60)
  store ptr %61, ptr %15, align 8, !tbaa !18
  %62 = load ptr, ptr %15, align 8, !tbaa !18
  %63 = icmp eq ptr %62, null
  br i1 %63, label %64, label %65

64:                                               ; preds = %59
  br label %98

65:                                               ; preds = %59
  %66 = load ptr, ptr %15, align 8, !tbaa !18
  %67 = getelementptr inbounds nuw %struct.asn1_string_st, ptr %66, i32 0, i32 2
  %68 = load ptr, ptr %67, align 8, !tbaa !64
  %69 = load ptr, ptr %15, align 8, !tbaa !18
  %70 = getelementptr inbounds nuw %struct.asn1_string_st, ptr %69, i32 0, i32 0
  %71 = load i32, ptr %70, align 8, !tbaa !66
  %72 = call ptr @BIO_new_mem_buf(ptr noundef %68, i32 noundef %71)
  store ptr %72, ptr %16, align 8, !tbaa !8
  %73 = load ptr, ptr %16, align 8, !tbaa !8
  %74 = icmp eq ptr %73, null
  br i1 %74, label %75, label %76

75:                                               ; preds = %65
  br label %98

76:                                               ; preds = %65
  %77 = load ptr, ptr %12, align 8, !tbaa !42
  %78 = load ptr, ptr %7, align 8, !tbaa !42
  %79 = call i32 @ossl_cms_msgSigDigest_add1(ptr noundef %77, ptr noundef %78)
  %80 = icmp ne i32 %79, 0
  br i1 %80, label %82, label %81

81:                                               ; preds = %76
  br label %98

82:                                               ; preds = %76
  %83 = load ptr, ptr %13, align 8, !tbaa !3
  %84 = load ptr, ptr %16, align 8, !tbaa !8
  %85 = load i32, ptr %11, align 4, !tbaa !10
  %86 = call i32 @CMS_final(ptr noundef %83, ptr noundef %84, ptr noundef null, i32 noundef %85)
  %87 = icmp ne i32 %86, 0
  br i1 %87, label %89, label %88

88:                                               ; preds = %82
  br label %98

89:                                               ; preds = %82
  %90 = load ptr, ptr %13, align 8, !tbaa !3
  %91 = call ptr @CMS_get0_content(ptr noundef %90)
  store ptr %91, ptr %14, align 8, !tbaa !16
  %92 = load ptr, ptr %14, align 8, !tbaa !16
  %93 = icmp eq ptr %92, null
  br i1 %93, label %94, label %95

94:                                               ; preds = %89
  br label %98

95:                                               ; preds = %89
  %96 = load ptr, ptr %15, align 8, !tbaa !18
  %97 = load ptr, ptr %14, align 8, !tbaa !16
  store ptr %96, ptr %97, align 8, !tbaa !18
  store i32 1, ptr %17, align 4, !tbaa !10
  br label %98

98:                                               ; preds = %95, %94, %88, %81, %75, %64, %58, %49, %43
  %99 = load ptr, ptr %16, align 8, !tbaa !8
  %100 = call i32 @BIO_free(ptr noundef %99)
  %101 = load i32, ptr %17, align 4, !tbaa !10
  %102 = icmp ne i32 %101, 0
  br i1 %102, label %103, label %105

103:                                              ; preds = %98
  %104 = load ptr, ptr %13, align 8, !tbaa !3
  store ptr %104, ptr %6, align 8
  store i32 1, ptr %19, align 4
  br label %108

105:                                              ; preds = %98
  %106 = load ptr, ptr %13, align 8, !tbaa !3
  call void @CMS_ContentInfo_free(ptr noundef %106)
  %107 = load ptr, ptr %15, align 8, !tbaa !18
  call void @ASN1_OCTET_STRING_free(ptr noundef %107)
  store ptr null, ptr %6, align 8
  store i32 1, ptr %19, align 4
  br label %108

108:                                              ; preds = %105, %103, %32
  call void @llvm.lifetime.end.p0(i64 8, ptr %18) #4
  call void @llvm.lifetime.end.p0(i64 4, ptr %17) #4
  call void @llvm.lifetime.end.p0(i64 8, ptr %16) #4
  call void @llvm.lifetime.end.p0(i64 8, ptr %15) #4
  call void @llvm.lifetime.end.p0(i64 8, ptr %14) #4
  call void @llvm.lifetime.end.p0(i64 8, ptr %13) #4
  call void @llvm.lifetime.end.p0(i64 8, ptr %12) #4
  %109 = load ptr, ptr %6, align 8
  ret ptr %109
}